; Function Attrs: mustprogress nofree norecurse nosync nounwind sspstrong willreturn memory(none) uwtable
define dso_local i64 @helper_mulsh_i64(i64 noundef %arg1, i64 noundef %arg2) #0 {
entry:
  %conv.i = sext i64 %arg1 to i128
  %conv1.i = sext i64 %arg2 to i128
  %mul.i = mul nsw i128 %conv1.i, %conv.i
  %shr.i = lshr i128 %mul.i, 64
  %conv3.i = trunc nuw i128 %shr.i to i64
  ret i64 %conv3.i
}